(dp0
S'LT50260372009145PAC01'
p1
(dp2
S'qc_lmin'
p3
(dp4
S'B4'
p5
F1.0
sS'B5'
p6
F1.0
sS'B6'
p7
F1.0
sS'B7'
p8
F1.0
sS'B1'
p9
F1.0
sS'B2'
p10
F1.0
sS'B3'
p11
F1.0
ssS'dnmin'
p12
(dp13
S'B4'
p14
I1
sS'B5'
p15
I1
sS'B6'
p16
I1
sS'B7'
p17
I1
sS'B1'
p18
I1
sS'B2'
p19
I1
sS'B3'
p20
I1
ssS'lmax'
p21
(dp22
S'B4'
p23
F221.0
sS'B5'
p24
F30.2
sS'B6'
p25
F15.303
sS'B7'
p26
F16.5
sS'B1'
p27
F193.0
sS'B2'
p28
F365.0
sS'B3'
p29
F264.0
ssS'bias'
p30
(dp31
S'B4'
p32
F-2.38602
sS'B5'
p33
F-0.49035
sS'B6'
p34
F1.18243
sS'B7'
p35
F-0.21555
sS'B1'
p36
F-2.28583
sS'B2'
p37
F-4.28819
sS'B3'
p38
F-2.21398
ssS'sun_elevation'
p39
S'65.70092597'
p40
sS'gain'
p41
(dp42
S'B7.TIF'
p43
F0.066
sS'B1.TIF'
p44
F0.766
sS'B6.TIF'
p45
F0.055
sS'B2.TIF'
p46
F1.448
sS'B5.TIF'
p47
F0.12
sS'B3.TIF'
p48
F1.044
sS'B4.TIF'
p49
F0.876
ssS'sat_id'
p50
S'5'
p51
sS'lmin'
p52
(dp53
S'B4'
p54
F-1.51
sS'B5'
p55
F-0.37
sS'B6'
p56
F1.238
sS'B7'
p57
F-0.15
sS'B1'
p58
F-1.52
sS'B2'
p59
F-2.84
sS'B3'
p60
F-1.17
ssS'julian_date'
p61
S'145'
p62
sS'qc_lmax'
p63
(dp64
S'B4'
p65
F255.0
sS'B5'
p66
F255.0
sS'B6'
p67
F255.0
sS'B7'
p68
F255.0
sS'B1'
p69
F255.0
sS'B2'
p70
F255.0
sS'B3'
p71
F255.0
sssS'LT50270352006128PAC01'
p72
(dp73
g3
(dp74
S'B4'
p75
F1.0
sS'B5'
p76
F1.0
sS'B6'
p77
F1.0
sS'B7'
p78
F1.0
sS'B1'
p79
F1.0
sS'B2'
p80
F1.0
sS'B3'
p81
F1.0
ssg12
(dp82
S'B4'
p83
I1
sS'B5'
p84
I1
sS'B6'
p85
I1
sS'B7'
p86
I1
sS'B1'
p87
I1
sS'B2'
p88
I1
sS'B3'
p89
I1
ssg21
(dp90
S'B4'
p91
F221.0
sS'B5'
p92
F30.2
sS'B6'
p93
F15.303
sS'B7'
p94
F16.5
sS'B1'
p95
F193.0
sS'B2'
p96
F365.0
sS'B3'
p97
F264.0
ssg30
(dp98
S'B4'
p99
F-2.38602
sS'B5'
p100
F-0.49035
sS'B6'
p101
F1.18243
sS'B7'
p102
F-0.21555
sS'B1'
p103
F-2.28583
sS'B2'
p104
F-4.28819
sS'B3'
p105
F-2.21398
ssg39
S'62.86613569'
p106
sg41
(dp107
S'B7.TIF'
p108
F0.066
sS'B1.TIF'
p109
F0.766
sS'B6.TIF'
p110
F0.055
sS'B2.TIF'
p111
F1.448
sS'B5.TIF'
p112
F0.12
sS'B3.TIF'
p113
F1.044
sS'B4.TIF'
p114
F0.876
ssg50
g51
sg52
(dp115
S'B4'
p116
F-1.51
sS'B5'
p117
F-0.37
sS'B6'
p118
F1.238
sS'B7'
p119
F-0.15
sS'B1'
p120
F-1.52
sS'B2'
p121
F-2.84
sS'B3'
p122
F-1.17
ssg61
S'128'
p123
sg63
(dp124
S'B4'
p125
F255.0
sS'B5'
p126
F255.0
sS'B6'
p127
F255.0
sS'B7'
p128
F255.0
sS'B1'
p129
F255.0
sS'B2'
p130
F255.0
sS'B3'
p131
F255.0
sssS'LT50260372011039EDC00'
p132
(dp133
g3
(dp134
S'B4'
p135
F1.0
sS'B5'
p136
F1.0
sS'B6'
p137
F1.0
sS'B7'
p138
F1.0
sS'B1'
p139
F1.0
sS'B2'
p140
F1.0
sS'B3'
p141
F1.0
ssg12
(dp142
S'B4'
p143
I1
sS'B5'
p144
I1
sS'B6'
p145
I1
sS'B7'
p146
I1
sS'B1'
p147
I1
sS'B2'
p148
I1
sS'B3'
p149
I1
ssg21
(dp150
S'B4'
p151
F221.0
sS'B5'
p152
F30.2
sS'B6'
p153
F15.303
sS'B7'
p154
F16.5
sS'B1'
p155
F193.0
sS'B2'
p156
F365.0
sS'B3'
p157
F264.0
ssg30
(dp158
S'B4'
p159
F-2.38602
sS'B5'
p160
F-0.49035
sS'B6'
p161
F1.18243
sS'B7'
p162
F-0.21555
sS'B1'
p163
F-2.28583
sS'B2'
p164
F-4.28819
sS'B3'
p165
F-2.21398
ssg39
S'35.13478425'
p166
sg41
(dp167
S'B7.TIF'
p168
F0.066
sS'B1.TIF'
p169
F0.766
sS'B6.TIF'
p170
F0.055
sS'B2.TIF'
p171
F1.448
sS'B5.TIF'
p172
F0.12
sS'B3.TIF'
p173
F1.044
sS'B4.TIF'
p174
F0.876
ssg50
g51
sg52
(dp175
S'B4'
p176
F-1.51
sS'B5'
p177
F-0.37
sS'B6'
p178
F1.238
sS'B7'
p179
F-0.15
sS'B1'
p180
F-1.52
sS'B2'
p181
F-2.84
sS'B3'
p182
F-1.17
ssg61
S'039'
p183
sg63
(dp184
S'B4'
p185
F255.0
sS'B5'
p186
F255.0
sS'B6'
p187
F255.0
sS'B7'
p188
F255.0
sS'B1'
p189
F255.0
sS'B2'
p190
F255.0
sS'B3'
p191
F255.0
sssS'LE70250372006106EDC00'
p192
(dp193
g3
(dp194
S'B4'
p195
F1.0
sS'B5'
p196
F1.0
sS'B6'
p197
F1.0
sS'B7'
p198
F1.0
sS'B1'
p199
F1.0
sS'B2'
p200
F1.0
sS'B3'
p201
F1.0
ssg12
(dp202
S'B6_VCID_1'
p203
I40
sS'B6_VCID_2'
p204
I1
sS'B4'
p205
I5
sS'B5'
p206
I8
sS'B7'
p207
I6
sS'B1'
p208
I7
sS'B2'
p209
I7
sS'B3'
p210
I6
ssg21
(dp211
S'B4'
p212
F241.1
sS'B5'
p213
F31.06
sS'B6'
p214
F12.65
sS'B7'
p215
F10.8
sS'B1'
p216
F191.6
sS'B2'
p217
F196.5
sS'B3'
p218
F152.9
ssg30
(dp219
S'B4'
p220
F-6.06929
sS'B5'
p221
F-1.12622
sS'B6'
p222
F3.1628
sS'B7'
p223
F-0.3939
sS'B1'
p224
F-6.97874
sS'B2'
p225
F-7.19882
sS'B3'
p226
F-5.62165
ssg39
S'58.16566613'
p227
sg41
(dp228
S'B7.TIF'
p229
F0.044
sS'B1.TIF'
p230
F0.779
sS'B6.TIF'
p231
F0.037
sS'B2.TIF'
p232
F0.799
sS'B5.TIF'
p233
F0.126
sS'B3.TIF'
p234
F0.622
sS'B4.TIF'
p235
F0.969
ssg50
S'7'
p236
sg52
(dp237
S'B4'
p238
F-5.1
sS'B5'
p239
F-1.0
sS'B6'
p240
F3.2
sS'B7'
p241
F-0.35
sS'B1'
p242
F-6.2
sS'B2'
p243
F-6.4
sS'B3'
p244
F-5.0
ssg61
S'106'
p245
sg63
(dp246
S'B4'
p247
F255.0
sS'B5'
p248
F255.0
sS'B6'
p249
F255.0
sS'B7'
p250
F255.0
sS'B1'
p251
F255.0
sS'B2'
p252
F255.0
sS'B3'
p253
F255.0
sssS'LE70260352009153EDC00'
p254
(dp255
g3
(dp256
S'B4'
p257
F1.0
sS'B5'
p258
F1.0
sS'B6'
p259
F1.0
sS'B7'
p260
F1.0
sS'B1'
p261
F1.0
sS'B2'
p262
F1.0
sS'B3'
p263
F1.0
ssg12
(dp264
S'B6_VCID_1'
p265
I30
sS'B6_VCID_2'
p266
I1
sS'B4'
p267
I1
sS'B5'
p268
I9
sS'B7'
p269
I1
sS'B1'
p270
I1
sS'B2'
p271
I1
sS'B3'
p272
I1
ssg21
(dp273
S'B4'
p274
F241.1
sS'B5'
p275
F31.06
sS'B6'
p276
F12.65
sS'B7'
p277
F10.8
sS'B1'
p278
F191.6
sS'B2'
p279
F196.5
sS'B3'
p280
F152.9
ssg30
(dp281
S'B4'
p282
F-6.06929
sS'B5'
p283
F-1.12622
sS'B6'
p284
F3.1628
sS'B7'
p285
F-0.3939
sS'B1'
p286
F-6.97874
sS'B2'
p287
F-7.19882
sS'B3'
p288
F-5.62165
ssg39
S'65.83078349'
p289
sg41
(dp290
S'B7.TIF'
p291
F0.044
sS'B1.TIF'
p292
F0.779
sS'B6.TIF'
p293
F0.037
sS'B2.TIF'
p294
F0.799
sS'B5.TIF'
p295
F0.126
sS'B3.TIF'
p296
F0.622
sS'B4.TIF'
p297
F0.969
ssg50
g236
sg52
(dp298
S'B4'
p299
F-5.1
sS'B5'
p300
F-1.0
sS'B6'
p301
F3.2
sS'B7'
p302
F-0.35
sS'B1'
p303
F-6.2
sS'B2'
p304
F-6.4
sS'B3'
p305
F-5.0
ssg61
S'153'
p306
sg63
(dp307
S'B4'
p308
F255.0
sS'B5'
p309
F255.0
sS'B6'
p310
F255.0
sS'B7'
p311
F255.0
sS'B1'
p312
F255.0
sS'B2'
p313
F255.0
sS'B3'
p314
F255.0
sssS'LE70250362011136EDC00'
p315
(dp316
g3
(dp317
S'B4'
p318
F1.0
sS'B5'
p319
F1.0
sS'B6'
p320
F1.0
sS'B7'
p321
F1.0
sS'B1'
p322
F1.0
sS'B2'
p323
F1.0
sS'B3'
p324
F1.0
ssg12
(dp325
S'B6_VCID_1'
p326
I1
sS'B6_VCID_2'
p327
I1
sS'B4'
p328
I1
sS'B5'
p329
I8
sS'B7'
p330
I1
sS'B1'
p331
I1
sS'B2'
p332
I1
sS'B3'
p333
I9
ssg21
(dp334
S'B4'
p335
F241.1
sS'B5'
p336
F31.06
sS'B6'
p337
F12.65
sS'B7'
p338
F10.8
sS'B1'
p339
F191.6
sS'B2'
p340
F196.5
sS'B3'
p341
F152.9
ssg30
(dp342
S'B4'
p343
F-6.06929
sS'B5'
p344
F-1.12622
sS'B6'
p345
F3.1628
sS'B7'
p346
F-0.3939
sS'B1'
p347
F-6.97874
sS'B2'
p348
F-7.19882
sS'B3'
p349
F-5.62165
ssg39
S'65.15872269'
p350
sg41
(dp351
S'B7.TIF'
p352
F0.044
sS'B1.TIF'
p353
F0.779
sS'B6.TIF'
p354
F0.037
sS'B2.TIF'
p355
F0.799
sS'B5.TIF'
p356
F0.126
sS'B3.TIF'
p357
F0.622
sS'B4.TIF'
p358
F0.969
ssg50
g236
sg52
(dp359
S'B4'
p360
F-5.1
sS'B5'
p361
F-1.0
sS'B6'
p362
F3.2
sS'B7'
p363
F-0.35
sS'B1'
p364
F-6.2
sS'B2'
p365
F-6.4
sS'B3'
p366
F-5.0
ssg61
S'136'
p367
sg63
(dp368
S'B4'
p369
F255.0
sS'B5'
p370
F255.0
sS'B6'
p371
F255.0
sS'B7'
p372
F255.0
sS'B1'
p373
F255.0
sS'B2'
p374
F255.0
sS'B3'
p375
F255.0
sssS'LE70270372012281EDC00'
p376
(dp377
g3
(dp378
S'B4'
p379
F1.0
sS'B5'
p380
F1.0
sS'B6'
p381
F1.0
sS'B7'
p382
F1.0
sS'B1'
p383
F1.0
sS'B2'
p384
F1.0
sS'B3'
p385
F1.0
ssg12
(dp386
S'B6_VCID_1'
p387
I1
sS'B6_VCID_2'
p388
I1
sS'B4'
p389
I1
sS'B5'
p390
I1
sS'B7'
p391
I1
sS'B1'
p392
I1
sS'B2'
p393
I1
sS'B3'
p394
I1
ssg21
(dp395
S'B4'
p396
F241.1
sS'B5'
p397
F31.06
sS'B6'
p398
F12.65
sS'B7'
p399
F10.8
sS'B1'
p400
F191.6
sS'B2'
p401
F196.5
sS'B3'
p402
F152.9
ssg30
(dp403
S'B4'
p404
F-6.06929
sS'B5'
p405
F-1.12622
sS'B6'
p406
F3.1628
sS'B7'
p407
F-0.3939
sS'B1'
p408
F-6.97874
sS'B2'
p409
F-7.19882
sS'B3'
p410
F-5.62165
ssg39
S'46.81388343'
p411
sg41
(dp412
S'B7.TIF'
p413
F0.044
sS'B1.TIF'
p414
F0.779
sS'B6.TIF'
p415
F0.037
sS'B2.TIF'
p416
F0.799
sS'B5.TIF'
p417
F0.126
sS'B3.TIF'
p418
F0.622
sS'B4.TIF'
p419
F0.969
ssg50
g236
sg52
(dp420
S'B4'
p421
F-5.1
sS'B5'
p422
F-1.0
sS'B6'
p423
F3.2
sS'B7'
p424
F-0.35
sS'B1'
p425
F-6.2
sS'B2'
p426
F-6.4
sS'B3'
p427
F-5.0
ssg61
S'281'
p428
sg63
(dp429
S'B4'
p430
F255.0
sS'B5'
p431
F255.0
sS'B6'
p432
F255.0
sS'B7'
p433
F255.0
sS'B1'
p434
F255.0
sS'B2'
p435
F255.0
sS'B3'
p436
F255.0
sssS'LE70250362006106EDC00'
p437
(dp438
g3
(dp439
S'B4'
p440
F1.0
sS'B5'
p441
F1.0
sS'B6'
p442
F1.0
sS'B7'
p443
F1.0
sS'B1'
p444
F1.0
sS'B2'
p445
F1.0
sS'B3'
p446
F1.0
ssg12
(dp447
S'B6_VCID_1'
p448
I91
sS'B6_VCID_2'
p449
I82
sS'B4'
p450
I5
sS'B5'
p451
I8
sS'B7'
p452
I6
sS'B1'
p453
I7
sS'B2'
p454
I7
sS'B3'
p455
I6
ssg21
(dp456
S'B4'
p457
F241.1
sS'B5'
p458
F31.06
sS'B6'
p459
F12.65
sS'B7'
p460
F10.8
sS'B1'
p461
F191.6
sS'B2'
p462
F196.5
sS'B3'
p463
F152.9
ssg30
(dp464
S'B4'
p465
F-6.06929
sS'B5'
p466
F-1.12622
sS'B6'
p467
F3.1628
sS'B7'
p468
F-0.3939
sS'B1'
p469
F-6.97874
sS'B2'
p470
F-7.19882
sS'B3'
p471
F-5.62165
ssg39
S'57.40044347'
p472
sg41
(dp473
S'B7.TIF'
p474
F0.044
sS'B1.TIF'
p475
F0.779
sS'B6.TIF'
p476
F0.037
sS'B2.TIF'
p477
F0.799
sS'B5.TIF'
p478
F0.126
sS'B3.TIF'
p479
F0.622
sS'B4.TIF'
p480
F0.969
ssg50
g236
sg52
(dp481
S'B4'
p482
F-5.1
sS'B5'
p483
F-1.0
sS'B6'
p484
F3.2
sS'B7'
p485
F-0.35
sS'B1'
p486
F-6.2
sS'B2'
p487
F-6.4
sS'B3'
p488
F-5.0
ssg61
S'106'
p489
sg63
(dp490
S'B4'
p491
F255.0
sS'B5'
p492
F255.0
sS'B6'
p493
F255.0
sS'B7'
p494
F255.0
sS'B1'
p495
F255.0
sS'B2'
p496
F255.0
sS'B3'
p497
F255.0
sssS'LT50260352003321PAC02'
p498
(dp499
g3
(dp500
S'B4'
p501
F1.0
sS'B5'
p502
F1.0
sS'B6'
p503
F1.0
sS'B7'
p504
F1.0
sS'B1'
p505
F1.0
sS'B2'
p506
F1.0
sS'B3'
p507
F1.0
ssg12
(dp508
S'B4'
p509
I1
sS'B5'
p510
I1
sS'B6'
p511
I1
sS'B7'
p512
I1
sS'B1'
p513
I1
sS'B2'
p514
I1
sS'B3'
p515
I1
ssg21
(dp516
S'B4'
p517
F221.0
sS'B5'
p518
F30.2
sS'B6'
p519
F15.303
sS'B7'
p520
F16.5
sS'B1'
p521
F193.0
sS'B2'
p522
F365.0
sS'B3'
p523
F264.0
ssg30
(dp524
S'B4'
p525
F-2.38602
sS'B5'
p526
F-0.49035
sS'B6'
p527
F1.18243
sS'B7'
p528
F-0.21555
sS'B1'
p529
F-2.28583
sS'B2'
p530
F-4.28819
sS'B3'
p531
F-2.21398
ssg39
S'30.94614287'
p532
sg41
(dp533
S'B7.TIF'
p534
F0.066
sS'B1.TIF'
p535
F0.766
sS'B6.TIF'
p536
F0.055
sS'B2.TIF'
p537
F1.448
sS'B5.TIF'
p538
F0.12
sS'B3.TIF'
p539
F1.044
sS'B4.TIF'
p540
F0.876
ssg50
g51
sg52
(dp541
S'B4'
p542
F-1.51
sS'B5'
p543
F-0.37
sS'B6'
p544
F1.238
sS'B7'
p545
F-0.15
sS'B1'
p546
F-1.52
sS'B2'
p547
F-2.84
sS'B3'
p548
F-1.17
ssg61
S'321'
p549
sg63
(dp550
S'B4'
p551
F255.0
sS'B5'
p552
F255.0
sS'B6'
p553
F255.0
sS'B7'
p554
F255.0
sS'B1'
p555
F255.0
sS'B2'
p556
F255.0
sS'B3'
p557
F255.0
sssS'LT50260372004020PAC02'
p558
(dp559
g3
(dp560
S'B4'
p561
F1.0
sS'B5'
p562
F1.0
sS'B6'
p563
F1.0
sS'B7'
p564
F1.0
sS'B1'
p565
F1.0
sS'B2'
p566
F1.0
sS'B3'
p567
F1.0
ssg12
(dp568
S'B4'
p569
I1
sS'B5'
p570
I1
sS'B6'
p571
I1
sS'B7'
p572
I1
sS'B1'
p573
I1
sS'B2'
p574
I1
sS'B3'
p575
I1
ssg21
(dp576
S'B4'
p577
F221.0
sS'B5'
p578
F30.2
sS'B6'
p579
F15.303
sS'B7'
p580
F16.5
sS'B1'
p581
F193.0
sS'B2'
p582
F365.0
sS'B3'
p583
F264.0
ssg30
(dp584
S'B4'
p585
F-2.38602
sS'B5'
p586
F-0.49035
sS'B6'
p587
F1.18243
sS'B7'
p588
F-0.21555
sS'B1'
p589
F-2.28583
sS'B2'
p590
F-4.28819
sS'B3'
p591
F-2.21398
ssg39
S'29.64870164'
p592
sg41
(dp593
S'B7.TIF'
p594
F0.066
sS'B1.TIF'
p595
F0.766
sS'B6.TIF'
p596
F0.055
sS'B2.TIF'
p597
F1.448
sS'B5.TIF'
p598
F0.12
sS'B3.TIF'
p599
F1.044
sS'B4.TIF'
p600
F0.876
ssg50
g51
sg52
(dp601
S'B4'
p602
F-1.51
sS'B5'
p603
F-0.37
sS'B6'
p604
F1.238
sS'B7'
p605
F-0.15
sS'B1'
p606
F-1.52
sS'B2'
p607
F-2.84
sS'B3'
p608
F-1.17
ssg61
S'020'
p609
sg63
(dp610
S'B4'
p611
F255.0
sS'B5'
p612
F255.0
sS'B6'
p613
F255.0
sS'B7'
p614
F255.0
sS'B1'
p615
F255.0
sS'B2'
p616
F255.0
sS'B3'
p617
F255.0
sssS'LE70260362004284EDC02'
p618
(dp619
g3
(dp620
S'B4'
p621
F1.0
sS'B5'
p622
F1.0
sS'B6'
p623
F1.0
sS'B7'
p624
F1.0
sS'B1'
p625
F1.0
sS'B2'
p626
F1.0
sS'B3'
p627
F1.0
ssg12
(dp628
S'B6_VCID_1'
p629
I38
sS'B6_VCID_2'
p630
I1
sS'B4'
p631
I6
sS'B5'
p632
I8
sS'B7'
p633
I7
sS'B1'
p634
I4
sS'B2'
p635
I6
sS'B3'
p636
I6
ssg21
(dp637
S'B4'
p638
F241.1
sS'B5'
p639
F31.06
sS'B6'
p640
F12.65
sS'B7'
p641
F10.8
sS'B1'
p642
F191.6
sS'B2'
p643
F196.5
sS'B3'
p644
F152.9
ssg30
(dp645
S'B4'
p646
F-6.06929
sS'B5'
p647
F-1.12622
sS'B6'
p648
F3.1628
sS'B7'
p649
F-0.3939
sS'B1'
p650
F-6.97874
sS'B2'
p651
F-7.19882
sS'B3'
p652
F-5.62165
ssg39
S'43.97217609'
p653
sg41
(dp654
S'B7.TIF'
p655
F0.044
sS'B1.TIF'
p656
F0.779
sS'B6.TIF'
p657
F0.037
sS'B2.TIF'
p658
F0.799
sS'B5.TIF'
p659
F0.126
sS'B3.TIF'
p660
F0.622
sS'B4.TIF'
p661
F0.969
ssg50
g236
sg52
(dp662
S'B4'
p663
F-5.1
sS'B5'
p664
F-1.0
sS'B6'
p665
F3.2
sS'B7'
p666
F-0.35
sS'B1'
p667
F-6.2
sS'B2'
p668
F-6.4
sS'B3'
p669
F-5.0
ssg61
S'284'
p670
sg63
(dp671
S'B4'
p672
F255.0
sS'B5'
p673
F255.0
sS'B6'
p674
F255.0
sS'B7'
p675
F255.0
sS'B1'
p676
F255.0
sS'B2'
p677
F255.0
sS'B3'
p678
F255.0
sssS'LT50260372009161PAC02'
p679
(dp680
g3
(dp681
S'B4'
p682
F1.0
sS'B5'
p683
F1.0
sS'B6'
p684
F1.0
sS'B7'
p685
F1.0
sS'B1'
p686
F1.0
sS'B2'
p687
F1.0
sS'B3'
p688
F1.0
ssg12
(dp689
S'B4'
p690
I1
sS'B5'
p691
I1
sS'B6'
p692
I1
sS'B7'
p693
I1
sS'B1'
p694
I1
sS'B2'
p695
I1
sS'B3'
p696
I1
ssg21
(dp697
S'B4'
p698
F221.0
sS'B5'
p699
F30.2
sS'B6'
p700
F15.303
sS'B7'
p701
F16.5
sS'B1'
p702
F193.0
sS'B2'
p703
F365.0
sS'B3'
p704
F264.0
ssg30
(dp705
S'B4'
p706
F-2.38602
sS'B5'
p707
F-0.49035
sS'B6'
p708
F1.18243
sS'B7'
p709
F-0.21555
sS'B1'
p710
F-2.28583
sS'B2'
p711
F-4.28819
sS'B3'
p712
F-2.21398
ssg39
S'66.34266704'
p713
sg41
(dp714
S'B7.TIF'
p715
F0.066
sS'B1.TIF'
p716
F0.766
sS'B6.TIF'
p717
F0.055
sS'B2.TIF'
p718
F1.448
sS'B5.TIF'
p719
F0.12
sS'B3.TIF'
p720
F1.044
sS'B4.TIF'
p721
F0.876
ssg50
g51
sg52
(dp722
S'B4'
p723
F-1.51
sS'B5'
p724
F-0.37
sS'B6'
p725
F1.238
sS'B7'
p726
F-0.15
sS'B1'
p727
F-1.52
sS'B2'
p728
F-2.84
sS'B3'
p729
F-1.17
ssg61
S'161'
p730
sg63
(dp731
S'B4'
p732
F255.0
sS'B5'
p733
F255.0
sS'B6'
p734
F255.0
sS'B7'
p735
F255.0
sS'B1'
p736
F255.0
sS'B2'
p737
F255.0
sS'B3'
p738
F255.0
sssS'LT50260372011135PAC01'
p739
(dp740
g3
(dp741
S'B4'
p742
F1.0
sS'B5'
p743
F1.0
sS'B6'
p744
F1.0
sS'B7'
p745
F1.0
sS'B1'
p746
F1.0
sS'B2'
p747
F1.0
sS'B3'
p748
F1.0
ssg12
(dp749
S'B4'
p750
I1
sS'B5'
p751
I1
sS'B6'
p752
I1
sS'B7'
p753
I1
sS'B1'
p754
I1
sS'B2'
p755
I1
sS'B3'
p756
I1
ssg21
(dp757
S'B4'
p758
F221.0
sS'B5'
p759
F30.2
sS'B6'
p760
F15.303
sS'B7'
p761
F16.5
sS'B1'
p762
F193.0
sS'B2'
p763
F365.0
sS'B3'
p764
F264.0
ssg30
(dp765
S'B4'
p766
F-2.38602
sS'B5'
p767
F-0.49035
sS'B6'
p768
F1.18243
sS'B7'
p769
F-0.21555
sS'B1'
p770
F-2.28583
sS'B2'
p771
F-4.28819
sS'B3'
p772
F-2.21398
ssg39
S'64.79782212'
p773
sg41
(dp774
S'B7.TIF'
p775
F0.066
sS'B1.TIF'
p776
F0.766
sS'B6.TIF'
p777
F0.055
sS'B2.TIF'
p778
F1.448
sS'B5.TIF'
p779
F0.12
sS'B3.TIF'
p780
F1.044
sS'B4.TIF'
p781
F0.876
ssg50
g51
sg52
(dp782
S'B4'
p783
F-1.51
sS'B5'
p784
F-0.37
sS'B6'
p785
F1.238
sS'B7'
p786
F-0.15
sS'B1'
p787
F-1.52
sS'B2'
p788
F-2.84
sS'B3'
p789
F-1.17
ssg61
S'135'
p790
sg63
(dp791
S'B4'
p792
F255.0
sS'B5'
p793
F255.0
sS'B6'
p794
F255.0
sS'B7'
p795
F255.0
sS'B1'
p796
F255.0
sS'B2'
p797
F255.0
sS'B3'
p798
F255.0
sssS'LE70260362005142EDC00'
p799
(dp800
g3
(dp801
S'B4'
p802
F1.0
sS'B5'
p803
F1.0
sS'B6'
p804
F1.0
sS'B7'
p805
F1.0
sS'B1'
p806
F1.0
sS'B2'
p807
F1.0
sS'B3'
p808
F1.0
ssg12
(dp809
S'B6_VCID_1'
p810
I19
sS'B6_VCID_2'
p811
I1
sS'B4'
p812
I5
sS'B5'
p813
I8
sS'B7'
p814
I6
sS'B1'
p815
I7
sS'B2'
p816
I8
sS'B3'
p817
I7
ssg21
(dp818
S'B4'
p819
F241.1
sS'B5'
p820
F31.06
sS'B6'
p821
F12.65
sS'B7'
p822
F10.8
sS'B1'
p823
F191.6
sS'B2'
p824
F196.5
sS'B3'
p825
F152.9
ssg30
(dp826
S'B4'
p827
F-6.06929
sS'B5'
p828
F-1.12622
sS'B6'
p829
F3.1628
sS'B7'
p830
F-0.3939
sS'B1'
p831
F-6.97874
sS'B2'
p832
F-7.19882
sS'B3'
p833
F-5.62165
ssg39
S'65.23910444'
p834
sg41
(dp835
S'B7.TIF'
p836
F0.044
sS'B1.TIF'
p837
F0.779
sS'B6.TIF'
p838
F0.037
sS'B2.TIF'
p839
F0.799
sS'B5.TIF'
p840
F0.126
sS'B3.TIF'
p841
F0.622
sS'B4.TIF'
p842
F0.969
ssg50
g236
sg52
(dp843
S'B4'
p844
F-5.1
sS'B5'
p845
F-1.0
sS'B6'
p846
F3.2
sS'B7'
p847
F-0.35
sS'B1'
p848
F-6.2
sS'B2'
p849
F-6.4
sS'B3'
p850
F-5.0
ssg61
S'142'
p851
sg63
(dp852
S'B4'
p853
F255.0
sS'B5'
p854
F255.0
sS'B6'
p855
F255.0
sS'B7'
p856
F255.0
sS'B1'
p857
F255.0
sS'B2'
p858
F255.0
sS'B3'
p859
F255.0
sssS'LT50250362006226PAC02'
p860
(dp861
g3
(dp862
S'B4'
p863
F1.0
sS'B5'
p864
F1.0
sS'B6'
p865
F1.0
sS'B7'
p866
F1.0
sS'B1'
p867
F1.0
sS'B2'
p868
F1.0
sS'B3'
p869
F1.0
ssg12
(dp870
S'B4'
p871
I1
sS'B5'
p872
I1
sS'B6'
p873
I1
sS'B7'
p874
I1
sS'B1'
p875
I1
sS'B2'
p876
I1
sS'B3'
p877
I1
ssg21
(dp878
S'B4'
p879
F221.0
sS'B5'
p880
F30.2
sS'B6'
p881
F15.303
sS'B7'
p882
F16.5
sS'B1'
p883
F193.0
sS'B2'
p884
F365.0
sS'B3'
p885
F264.0
ssg30
(dp886
S'B4'
p887
F-2.38602
sS'B5'
p888
F-0.49035
sS'B6'
p889
F1.18243
sS'B7'
p890
F-0.21555
sS'B1'
p891
F-2.28583
sS'B2'
p892
F-4.28819
sS'B3'
p893
F-2.21398
ssg39
S'60.26287720'
p894
sg41
(dp895
S'B7.TIF'
p896
F0.066
sS'B1.TIF'
p897
F0.766
sS'B6.TIF'
p898
F0.055
sS'B2.TIF'
p899
F1.448
sS'B5.TIF'
p900
F0.12
sS'B3.TIF'
p901
F1.044
sS'B4.TIF'
p902
F0.876
ssg50
g51
sg52
(dp903
S'B4'
p904
F-1.51
sS'B5'
p905
F-0.37
sS'B6'
p906
F1.238
sS'B7'
p907
F-0.15
sS'B1'
p908
F-1.52
sS'B2'
p909
F-2.84
sS'B3'
p910
F-1.17
ssg61
S'226'
p911
sg63
(dp912
S'B4'
p913
F255.0
sS'B5'
p914
F255.0
sS'B6'
p915
F255.0
sS'B7'
p916
F255.0
sS'B1'
p917
F255.0
sS'B2'
p918
F255.0
sS'B3'
p919
F255.0
sssS'LE70260352004076EDC03'
p920
(dp921
g3
(dp922
S'B4'
p923
F1.0
sS'B5'
p924
F1.0
sS'B6'
p925
F1.0
sS'B7'
p926
F1.0
sS'B1'
p927
F1.0
sS'B2'
p928
F1.0
sS'B3'
p929
F1.0
ssg12
(dp930
S'B6_VCID_1'
p931
I65
sS'B6_VCID_2'
p932
I31
sS'B4'
p933
I6
sS'B5'
p934
I8
sS'B7'
p935
I6
sS'B1'
p936
I7
sS'B2'
p937
I8
sS'B3'
p938
I7
ssg21
(dp939
S'B4'
p940
F241.1
sS'B5'
p941
F31.06
sS'B6'
p942
F12.65
sS'B7'
p943
F10.8
sS'B1'
p944
F191.6
sS'B2'
p945
F196.5
sS'B3'
p946
F152.9
ssg30
(dp947
S'B4'
p948
F-6.06929
sS'B5'
p949
F-1.12622
sS'B6'
p950
F3.1628
sS'B7'
p951
F-0.3939
sS'B1'
p952
F-6.97874
sS'B2'
p953
F-7.19882
sS'B3'
p954
F-5.62165
ssg39
S'45.50755171'
p955
sg41
(dp956
S'B7.TIF'
p957
F0.044
sS'B1.TIF'
p958
F0.779
sS'B6.TIF'
p959
F0.037
sS'B2.TIF'
p960
F0.799
sS'B5.TIF'
p961
F0.126
sS'B3.TIF'
p962
F0.622
sS'B4.TIF'
p963
F0.969
ssg50
g236
sg52
(dp964
S'B4'
p965
F-5.1
sS'B5'
p966
F-1.0
sS'B6'
p967
F3.2
sS'B7'
p968
F-0.35
sS'B1'
p969
F-6.2
sS'B2'
p970
F-6.4
sS'B3'
p971
F-5.0
ssg61
S'076'
p972
sg63
(dp973
S'B4'
p974
F255.0
sS'B5'
p975
F255.0
sS'B6'
p976
F255.0
sS'B7'
p977
F255.0
sS'B1'
p978
F255.0
sS'B2'
p979
F255.0
sS'B3'
p980
F255.0
sssS'LT50270352010235PAC01'
p981
(dp982
g3
(dp983
S'B4'
p984
F1.0
sS'B5'
p985
F1.0
sS'B6'
p986
F1.0
sS'B7'
p987
F1.0
sS'B1'
p988
F1.0
sS'B2'
p989
F1.0
sS'B3'
p990
F1.0
ssg12
(dp991
S'B4'
p992
I1
sS'B5'
p993
I1
sS'B6'
p994
I1
sS'B7'
p995
I1
sS'B1'
p996
I1
sS'B2'
p997
I1
sS'B3'
p998
I1
ssg21
(dp999
S'B4'
p1000
F221.0
sS'B5'
p1001
F30.2
sS'B6'
p1002
F15.303
sS'B7'
p1003
F16.5
sS'B1'
p1004
F193.0
sS'B2'
p1005
F365.0
sS'B3'
p1006
F264.0
ssg30
(dp1007
S'B4'
p1008
F-2.38602
sS'B5'
p1009
F-0.49035
sS'B6'
p1010
F1.18243
sS'B7'
p1011
F-0.21555
sS'B1'
p1012
F-2.28583
sS'B2'
p1013
F-4.28819
sS'B3'
p1014
F-2.21398
ssg39
S'57.09477324'
p1015
sg41
(dp1016
S'B7.TIF'
p1017
F0.066
sS'B1.TIF'
p1018
F0.766
sS'B6.TIF'
p1019
F0.055
sS'B2.TIF'
p1020
F1.448
sS'B5.TIF'
p1021
F0.12
sS'B3.TIF'
p1022
F1.044
sS'B4.TIF'
p1023
F0.876
ssg50
g51
sg52
(dp1024
S'B4'
p1025
F-1.51
sS'B5'
p1026
F-0.37
sS'B6'
p1027
F1.238
sS'B7'
p1028
F-0.15
sS'B1'
p1029
F-1.52
sS'B2'
p1030
F-2.84
sS'B3'
p1031
F-1.17
ssg61
S'235'
p1032
sg63
(dp1033
S'B4'
p1034
F255.0
sS'B5'
p1035
F255.0
sS'B6'
p1036
F255.0
sS'B7'
p1037
F255.0
sS'B1'
p1038
F255.0
sS'B2'
p1039
F255.0
sS'B3'
p1040
F255.0
sssS'LT50260372011199PAC01'
p1041
(dp1042
g3
(dp1043
S'B4'
p1044
F1.0
sS'B5'
p1045
F1.0
sS'B6'
p1046
F1.0
sS'B7'
p1047
F1.0
sS'B1'
p1048
F1.0
sS'B2'
p1049
F1.0
sS'B3'
p1050
F1.0
ssg12
(dp1051
S'B4'
p1052
I1
sS'B5'
p1053
I1
sS'B6'
p1054
I1
sS'B7'
p1055
I1
sS'B1'
p1056
I1
sS'B2'
p1057
I1
sS'B3'
p1058
I1
ssg21
(dp1059
S'B4'
p1060
F221.0
sS'B5'
p1061
F30.2
sS'B6'
p1062
F15.303
sS'B7'
p1063
F16.5
sS'B1'
p1064
F193.0
sS'B2'
p1065
F365.0
sS'B3'
p1066
F264.0
ssg30
(dp1067
S'B4'
p1068
F-2.38602
sS'B5'
p1069
F-0.49035
sS'B6'
p1070
F1.18243
sS'B7'
p1071
F-0.21555
sS'B1'
p1072
F-2.28583
sS'B2'
p1073
F-4.28819
sS'B3'
p1074
F-2.21398
ssg39
S'64.07759270'
p1075
sg41
(dp1076
S'B7.TIF'
p1077
F0.066
sS'B1.TIF'
p1078
F0.766
sS'B6.TIF'
p1079
F0.055
sS'B2.TIF'
p1080
F1.448
sS'B5.TIF'
p1081
F0.12
sS'B3.TIF'
p1082
F1.044
sS'B4.TIF'
p1083
F0.876
ssg50
g51
sg52
(dp1084
S'B4'
p1085
F-1.51
sS'B5'
p1086
F-0.37
sS'B6'
p1087
F1.238
sS'B7'
p1088
F-0.15
sS'B1'
p1089
F-1.52
sS'B2'
p1090
F-2.84
sS'B3'
p1091
F-1.17
ssg61
S'199'
p1092
sg63
(dp1093
S'B4'
p1094
F255.0
sS'B5'
p1095
F255.0
sS'B6'
p1096
F255.0
sS'B7'
p1097
F255.0
sS'B1'
p1098
F255.0
sS'B2'
p1099
F255.0
sS'B3'
p1100
F255.0
sssS'LE70260362005046EDC00'
p1101
(dp1102
g3
(dp1103
S'B4'
p1104
F1.0
sS'B5'
p1105
F1.0
sS'B6'
p1106
F1.0
sS'B7'
p1107
F1.0
sS'B1'
p1108
F1.0
sS'B2'
p1109
F1.0
sS'B3'
p1110
F1.0
ssg12
(dp1111
S'B6_VCID_1'
p1112
I67
sS'B6_VCID_2'
p1113
I35
sS'B4'
p1114
I6
sS'B5'
p1115
I7
sS'B7'
p1116
I6
sS'B1'
p1117
I7
sS'B2'
p1118
I7
sS'B3'
p1119
I7
ssg21
(dp1120
S'B4'
p1121
F241.1
sS'B5'
p1122
F31.06
sS'B6'
p1123
F12.65
sS'B7'
p1124
F10.8
sS'B1'
p1125
F191.6
sS'B2'
p1126
F196.5
sS'B3'
p1127
F152.9
ssg30
(dp1128
S'B4'
p1129
F-6.06929
sS'B5'
p1130
F-1.12622
sS'B6'
p1131
F3.1628
sS'B7'
p1132
F-0.3939
sS'B1'
p1133
F-6.97874
sS'B2'
p1134
F-7.19882
sS'B3'
p1135
F-5.62165
ssg39
S'36.20910159'
p1136
sg41
(dp1137
S'B7.TIF'
p1138
F0.044
sS'B1.TIF'
p1139
F0.779
sS'B6.TIF'
p1140
F0.037
sS'B2.TIF'
p1141
F0.799
sS'B5.TIF'
p1142
F0.126
sS'B3.TIF'
p1143
F0.622
sS'B4.TIF'
p1144
F0.969
ssg50
g236
sg52
(dp1145
S'B4'
p1146
F-5.1
sS'B5'
p1147
F-1.0
sS'B6'
p1148
F3.2
sS'B7'
p1149
F-0.35
sS'B1'
p1150
F-6.2
sS'B2'
p1151
F-6.4
sS'B3'
p1152
F-5.0
ssg61
S'046'
p1153
sg63
(dp1154
S'B4'
p1155
F255.0
sS'B5'
p1156
F255.0
sS'B6'
p1157
F255.0
sS'B7'
p1158
F255.0
sS'B1'
p1159
F255.0
sS'B2'
p1160
F255.0
sS'B3'
p1161
F255.0
sssS'LT50270352004187PAC01'
p1162
(dp1163
g3
(dp1164
S'B4'
p1165
F1.0
sS'B5'
p1166
F1.0
sS'B6'
p1167
F1.0
sS'B7'
p1168
F1.0
sS'B1'
p1169
F1.0
sS'B2'
p1170
F1.0
sS'B3'
p1171
F1.0
ssg12
(dp1172
S'B4'
p1173
I1
sS'B5'
p1174
I1
sS'B6'
p1175
I1
sS'B7'
p1176
I1
sS'B1'
p1177
I1
sS'B2'
p1178
I1
sS'B3'
p1179
I1
ssg21
(dp1180
S'B4'
p1181
F221.0
sS'B5'
p1182
F30.2
sS'B6'
p1183
F15.303
sS'B7'
p1184
F16.5
sS'B1'
p1185
F193.0
sS'B2'
p1186
F365.0
sS'B3'
p1187
F264.0
ssg30
(dp1188
S'B4'
p1189
F-2.38602
sS'B5'
p1190
F-0.49035
sS'B6'
p1191
F1.18243
sS'B7'
p1192
F-0.21555
sS'B1'
p1193
F-2.28583
sS'B2'
p1194
F-4.28819
sS'B3'
p1195
F-2.21398
ssg39
S'63.41271618'
p1196
sg41
(dp1197
S'B7.TIF'
p1198
F0.066
sS'B1.TIF'
p1199
F0.766
sS'B6.TIF'
p1200
F0.055
sS'B2.TIF'
p1201
F1.448
sS'B5.TIF'
p1202
F0.12
sS'B3.TIF'
p1203
F1.044
sS'B4.TIF'
p1204
F0.876
ssg50
g51
sg52
(dp1205
S'B4'
p1206
F-1.51
sS'B5'
p1207
F-0.37
sS'B6'
p1208
F1.238
sS'B7'
p1209
F-0.15
sS'B1'
p1210
F-1.52
sS'B2'
p1211
F-2.84
sS'B3'
p1212
F-1.17
ssg61
S'187'
p1213
sg63
(dp1214
S'B4'
p1215
F255.0
sS'B5'
p1216
F255.0
sS'B6'
p1217
F255.0
sS'B7'
p1218
F255.0
sS'B1'
p1219
F255.0
sS'B2'
p1220
F255.0
sS'B3'
p1221
F255.0
sssS'LE70250362011200EDC00'
p1222
(dp1223
g3
(dp1224
S'B4'
p1225
F1.0
sS'B5'
p1226
F1.0
sS'B6'
p1227
F1.0
sS'B7'
p1228
F1.0
sS'B1'
p1229
F1.0
sS'B2'
p1230
F1.0
sS'B3'
p1231
F1.0
ssg12
(dp1232
S'B6_VCID_1'
p1233
I1
sS'B6_VCID_2'
p1234
I1
sS'B4'
p1235
I1
sS'B5'
p1236
I1
sS'B7'
p1237
I1
sS'B1'
p1238
I1
sS'B2'
p1239
I1
sS'B3'
p1240
I9
ssg21
(dp1241
S'B4'
p1242
F241.1
sS'B5'
p1243
F31.06
sS'B6'
p1244
F12.65
sS'B7'
p1245
F10.8
sS'B1'
p1246
F191.6
sS'B2'
p1247
F196.5
sS'B3'
p1248
F152.9
ssg30
(dp1249
S'B4'
p1250
F-6.06929
sS'B5'
p1251
F-1.12622
sS'B6'
p1252
F3.1628
sS'B7'
p1253
F-0.3939
sS'B1'
p1254
F-6.97874
sS'B2'
p1255
F-7.19882
sS'B3'
p1256
F-5.62165
ssg39
S'64.45464195'
p1257
sg41
(dp1258
S'B7.TIF'
p1259
F0.044
sS'B1.TIF'
p1260
F0.779
sS'B6.TIF'
p1261
F0.037
sS'B2.TIF'
p1262
F0.799
sS'B5.TIF'
p1263
F0.126
sS'B3.TIF'
p1264
F0.622
sS'B4.TIF'
p1265
F0.969
ssg50
g236
sg52
(dp1266
S'B4'
p1267
F-5.1
sS'B5'
p1268
F-1.0
sS'B6'
p1269
F3.2
sS'B7'
p1270
F-0.35
sS'B1'
p1271
F-6.2
sS'B2'
p1272
F-6.4
sS'B3'
p1273
F-5.0
ssg61
S'200'
p1274
sg63
(dp1275
S'B4'
p1276
F255.0
sS'B5'
p1277
F255.0
sS'B6'
p1278
F255.0
sS'B7'
p1279
F255.0
sS'B1'
p1280
F255.0
sS'B2'
p1281
F255.0
sS'B3'
p1282
F255.0
sss.